; ModuleID = 'source-C-CXX/0/776.cpp'
source_filename = "source-C-CXX/0/776.cpp"
target datalayout = "e-m:e-p270:32:32-p271:32:32-p272:64:64-i64:64-f80:128-n8:16:32:64-S128"
target triple = "x86_64-pc-linux-gnu"

%"class.std::ios_base::Init" = type { i8 }
%"class.std::basic_istream" = type { i32 (...)**, i64, %"class.std::basic_ios" }
%"class.std::basic_ios" = type { %"class.std::ios_base", %"class.std::basic_ostream"*, i8, i8, %"class.std::basic_streambuf"*, %"class.std::ctype"*, %"class.std::num_put"*, %"class.std::num_get"* }
%"class.std::ios_base" = type { i32 (...)**, i64, i64, i32, i32, i32, %"struct.std::ios_base::_Callback_list"*, %"struct.std::ios_base::_Words", [8 x %"struct.std::ios_base::_Words"], i32, %"struct.std::ios_base::_Words"*, %"class.std::locale" }
%"struct.std::ios_base::_Callback_list" = type { %"struct.std::ios_base::_Callback_list"*, void (i32, %"class.std::ios_base"*, i32)*, i32, i32 }
%"struct.std::ios_base::_Words" = type { i8*, i64 }
%"class.std::locale" = type { %"class.std::locale::_Impl"* }
%"class.std::locale::_Impl" = type { i32, %"class.std::locale::facet"**, i64, %"class.std::locale::facet"**, i8** }
%"class.std::locale::facet" = type <{ i32 (...)**, i32, [4 x i8] }>
%"class.std::basic_ostream" = type { i32 (...)**, %"class.std::basic_ios" }
%"class.std::basic_streambuf" = type { i32 (...)**, i8*, i8*, i8*, i8*, i8*, i8*, %"class.std::locale" }
%"class.std::ctype" = type <{ %"class.std::locale::facet.base", [4 x i8], %struct.__locale_struct*, i8, [7 x i8], i32*, i32*, i16*, i8, [256 x i8], [256 x i8], i8, [6 x i8] }>
%"class.std::locale::facet.base" = type <{ i32 (...)**, i32 }>
%struct.__locale_struct = type { [13 x %struct.__locale_data*], i16*, i32*, i32*, [13 x i8*] }
%struct.__locale_data = type opaque
%"class.std::num_put" = type { %"class.std::locale::facet.base", [4 x i8] }
%"class.std::num_get" = type { %"class.std::locale::facet.base", [4 x i8] }

@_ZStL8__ioinit = internal global %"class.std::ios_base::Init" zeroinitializer, align 1
@__dso_handle = external hidden global i8
@times = dso_local local_unnamed_addr global i32 1, align 4
@used = dso_local local_unnamed_addr global [1000 x i32] zeroinitializer, align 16
@_ZSt3cin = external global %"class.std::basic_istream", align 8
@_ZSt4cout = external global %"class.std::basic_ostream", align 8
@llvm.global_ctors = appending global [1 x { i32, void ()*, i8* }] [{ i32, void ()*, i8* } { i32 65535, void ()* @_GLOBAL__sub_I_776.cpp, i8* null }]

declare void @_ZNSt8ios_base4InitC1Ev(%"class.std::ios_base::Init"* nonnull align 1 dereferenceable(1)) unnamed_addr #0

; Function Attrs: nounwind
declare void @_ZNSt8ios_base4InitD1Ev(%"class.std::ios_base::Init"* nonnull align 1 dereferenceable(1)) unnamed_addr #1

; Function Attrs: nofree nounwind
declare i32 @__cxa_atexit(void (i8*)*, i8*, i8*) local_unnamed_addr #2

; Function Attrs: mustprogress nofree nounwind sspstrong uwtable
define dso_local void @_Z4fucki(i32 %0) local_unnamed_addr #3 {
  %2 = sitofp i32 %0 to double
  %3 = tail call double @sqrt(double %2) #10
  %4 = fcmp ult double %3, 2.000000e+00
  br i1 %4, label %87, label %5

5:                                                ; preds = %1, %80
  %6 = phi i64 [ %81, %80 ], [ 2, %1 ]
  %7 = phi i64 [ %86, %80 ], [ 0, %1 ]
  %8 = add i64 %7, -6
  %9 = lshr i64 %8, 3
  %10 = add nuw nsw i64 %9, 1
  %11 = add i64 %7, 2
  %12 = shl i64 %7, 2
  %13 = add i64 %12, 8
  %14 = getelementptr inbounds [1000 x i32], [1000 x i32]* @used, i64 0, i64 %6
  %15 = load i32, i32* %14, align 4, !tbaa !5
  %16 = icmp eq i32 %15, 0
  br i1 %16, label %17, label %80

17:                                               ; preds = %5
  %18 = trunc i64 %6 to i32
  %19 = srem i32 %0, %18
  %20 = sdiv i32 %0, %18
  %21 = icmp eq i32 %19, 0
  br i1 %21, label %22, label %80

22:                                               ; preds = %17
  %23 = icmp ult i64 %11, 8
  br i1 %23, label %70, label %24

24:                                               ; preds = %22
  %25 = and i64 %11, -8
  %26 = and i64 %10, 3
  %27 = icmp ult i64 %8, 24
  br i1 %27, label %55, label %28

28:                                               ; preds = %24
  %29 = and i64 %10, 4611686018427387900
  br label %30

30:                                               ; preds = %30, %28
  %31 = phi i64 [ 0, %28 ], [ %52, %30 ]
  %32 = phi i64 [ %29, %28 ], [ %53, %30 ]
  %33 = getelementptr inbounds [1000 x i32], [1000 x i32]* @used, i64 0, i64 %31
  %34 = bitcast i32* %33 to <4 x i32>*
  store <4 x i32> <i32 1, i32 1, i32 1, i32 1>, <4 x i32>* %34, align 16, !tbaa !5
  %35 = getelementptr inbounds i32, i32* %33, i64 4
  %36 = bitcast i32* %35 to <4 x i32>*
  store <4 x i32> <i32 1, i32 1, i32 1, i32 1>, <4 x i32>* %36, align 16, !tbaa !5
  %37 = or i64 %31, 8
  %38 = getelementptr inbounds [1000 x i32], [1000 x i32]* @used, i64 0, i64 %37
  %39 = bitcast i32* %38 to <4 x i32>*
  store <4 x i32> <i32 1, i32 1, i32 1, i32 1>, <4 x i32>* %39, align 16, !tbaa !5
  %40 = getelementptr inbounds i32, i32* %38, i64 4
  %41 = bitcast i32* %40 to <4 x i32>*
  store <4 x i32> <i32 1, i32 1, i32 1, i32 1>, <4 x i32>* %41, align 16, !tbaa !5
  %42 = or i64 %31, 16
  %43 = getelementptr inbounds [1000 x i32], [1000 x i32]* @used, i64 0, i64 %42
  %44 = bitcast i32* %43 to <4 x i32>*
  store <4 x i32> <i32 1, i32 1, i32 1, i32 1>, <4 x i32>* %44, align 16, !tbaa !5
  %45 = getelementptr inbounds i32, i32* %43, i64 4
  %46 = bitcast i32* %45 to <4 x i32>*
  store <4 x i32> <i32 1, i32 1, i32 1, i32 1>, <4 x i32>* %46, align 16, !tbaa !5
  %47 = or i64 %31, 24
  %48 = getelementptr inbounds [1000 x i32], [1000 x i32]* @used, i64 0, i64 %47
  %49 = bitcast i32* %48 to <4 x i32>*
  store <4 x i32> <i32 1, i32 1, i32 1, i32 1>, <4 x i32>* %49, align 16, !tbaa !5
  %50 = getelementptr inbounds i32, i32* %48, i64 4
  %51 = bitcast i32* %50 to <4 x i32>*
  store <4 x i32> <i32 1, i32 1, i32 1, i32 1>, <4 x i32>* %51, align 16, !tbaa !5
  %52 = add nuw i64 %31, 32
  %53 = add i64 %32, -4
  %54 = icmp eq i64 %53, 0
  br i1 %54, label %55, label %30, !llvm.loop !9

55:                                               ; preds = %30, %24
  %56 = phi i64 [ 0, %24 ], [ %52, %30 ]
  %57 = icmp eq i64 %26, 0
  br i1 %57, label %68, label %58

58:                                               ; preds = %55, %58
  %59 = phi i64 [ %65, %58 ], [ %56, %55 ]
  %60 = phi i64 [ %66, %58 ], [ %26, %55 ]
  %61 = getelementptr inbounds [1000 x i32], [1000 x i32]* @used, i64 0, i64 %59
  %62 = bitcast i32* %61 to <4 x i32>*
  store <4 x i32> <i32 1, i32 1, i32 1, i32 1>, <4 x i32>* %62, align 16, !tbaa !5
  %63 = getelementptr inbounds i32, i32* %61, i64 4
  %64 = bitcast i32* %63 to <4 x i32>*
  store <4 x i32> <i32 1, i32 1, i32 1, i32 1>, <4 x i32>* %64, align 16, !tbaa !5
  %65 = add nuw i64 %59, 8
  %66 = add i64 %60, -1
  %67 = icmp eq i64 %66, 0
  br i1 %67, label %68, label %58, !llvm.loop !12

68:                                               ; preds = %58, %55
  %69 = icmp eq i64 %11, %25
  br i1 %69, label %77, label %70

70:                                               ; preds = %22, %68
  %71 = phi i64 [ 0, %22 ], [ %25, %68 ]
  br label %72

72:                                               ; preds = %70, %72
  %73 = phi i64 [ %75, %72 ], [ %71, %70 ]
  %74 = getelementptr inbounds [1000 x i32], [1000 x i32]* @used, i64 0, i64 %73
  store i32 1, i32* %74, align 4, !tbaa !5
  %75 = add nuw nsw i64 %73, 1
  %76 = icmp eq i64 %75, %6
  br i1 %76, label %77, label %72, !llvm.loop !14

77:                                               ; preds = %72, %68
  %78 = load i32, i32* @times, align 4, !tbaa !5
  %79 = add nsw i32 %78, 1
  store i32 %79, i32* @times, align 4, !tbaa !5
  tail call void @_Z4fucki(i32 %20)
  call void @llvm.memset.p0i8.i64(i8* align 16 bitcast ([1000 x i32]* @used to i8*), i8 0, i64 %13, i1 false)
  br label %80

80:                                               ; preds = %77, %5, %17
  %81 = add nuw i64 %6, 1
  %82 = trunc i64 %81 to i32
  %83 = sitofp i32 %82 to double
  %84 = tail call double @sqrt(double %2) #10
  %85 = fcmp ult double %84, %83
  %86 = add i64 %7, 1
  br i1 %85, label %87, label %5, !llvm.loop !16

87:                                               ; preds = %80, %1
  ret void
}

; Function Attrs: argmemonly mustprogress nofree nosync nounwind willreturn
declare void @llvm.lifetime.start.p0i8(i64 immarg, i8* nocapture) #4

; Function Attrs: argmemonly mustprogress nofree nosync nounwind willreturn
declare void @llvm.lifetime.end.p0i8(i64 immarg, i8* nocapture) #4

; Function Attrs: mustprogress norecurse sspstrong uwtable
define dso_local i32 @main() local_unnamed_addr #5 {
  %1 = alloca i32, align 4
  %2 = alloca i32, align 4
  %3 = bitcast i32* %1 to i8*
  call void @llvm.lifetime.start.p0i8(i64 4, i8* nonnull %3) #10
  store i32 0, i32* %1, align 4, !tbaa !5
  %4 = bitcast i32* %2 to i8*
  call void @llvm.lifetime.start.p0i8(i64 4, i8* nonnull %4) #10
  store i32 0, i32* %2, align 4, !tbaa !5
  %5 = call nonnull align 8 dereferenceable(16) %"class.std::basic_istream"* @_ZNSirsERi(%"class.std::basic_istream"* nonnull align 8 dereferenceable(16) @_ZSt3cin, i32* nonnull align 4 dereferenceable(4) %1)
  %6 = load i32, i32* %1, align 4, !tbaa !5
  %7 = icmp sgt i32 %6, 0
  br i1 %7, label %8, label %46

8:                                                ; preds = %0, %39
  %9 = phi i32 [ %43, %39 ], [ 0, %0 ]
  %10 = call nonnull align 8 dereferenceable(16) %"class.std::basic_istream"* @_ZNSirsERi(%"class.std::basic_istream"* nonnull align 8 dereferenceable(16) @_ZSt3cin, i32* nonnull align 4 dereferenceable(4) %2)
  %11 = load i32, i32* %2, align 4, !tbaa !5
  call void @_Z4fucki(i32 %11)
  %12 = load i32, i32* @times, align 4, !tbaa !5
  %13 = call nonnull align 8 dereferenceable(8) %"class.std::basic_ostream"* @_ZNSolsEi(%"class.std::basic_ostream"* nonnull align 8 dereferenceable(8) @_ZSt4cout, i32 %12)
  %14 = bitcast %"class.std::basic_ostream"* %13 to i8**
  %15 = load i8*, i8** %14, align 8, !tbaa !17
  %16 = getelementptr i8, i8* %15, i64 -24
  %17 = bitcast i8* %16 to i64*
  %18 = load i64, i64* %17, align 8
  %19 = bitcast %"class.std::basic_ostream"* %13 to i8*
  %20 = add nsw i64 %18, 240
  %21 = getelementptr inbounds i8, i8* %19, i64 %20
  %22 = bitcast i8* %21 to %"class.std::ctype"**
  %23 = load %"class.std::ctype"*, %"class.std::ctype"** %22, align 8, !tbaa !19
  %24 = icmp eq %"class.std::ctype"* %23, null
  br i1 %24, label %25, label %26

25:                                               ; preds = %8
  call void @_ZSt16__throw_bad_castv() #11
  unreachable

26:                                               ; preds = %8
  %27 = getelementptr inbounds %"class.std::ctype", %"class.std::ctype"* %23, i64 0, i32 8
  %28 = load i8, i8* %27, align 8, !tbaa !23
  %29 = icmp eq i8 %28, 0
  br i1 %29, label %33, label %30

30:                                               ; preds = %26
  %31 = getelementptr inbounds %"class.std::ctype", %"class.std::ctype"* %23, i64 0, i32 9, i64 10
  %32 = load i8, i8* %31, align 1, !tbaa !25
  br label %39

33:                                               ; preds = %26
  call void @_ZNKSt5ctypeIcE13_M_widen_initEv(%"class.std::ctype"* nonnull align 8 dereferenceable(570) %23)
  %34 = bitcast %"class.std::ctype"* %23 to i8 (%"class.std::ctype"*, i8)***
  %35 = load i8 (%"class.std::ctype"*, i8)**, i8 (%"class.std::ctype"*, i8)*** %34, align 8, !tbaa !17
  %36 = getelementptr inbounds i8 (%"class.std::ctype"*, i8)*, i8 (%"class.std::ctype"*, i8)** %35, i64 6
  %37 = load i8 (%"class.std::ctype"*, i8)*, i8 (%"class.std::ctype"*, i8)** %36, align 8
  %38 = call signext i8 %37(%"class.std::ctype"* nonnull align 8 dereferenceable(570) %23, i8 signext 10)
  br label %39

39:                                               ; preds = %30, %33
  %40 = phi i8 [ %32, %30 ], [ %38, %33 ]
  %41 = call nonnull align 8 dereferenceable(8) %"class.std::basic_ostream"* @_ZNSo3putEc(%"class.std::basic_ostream"* nonnull align 8 dereferenceable(8) %13, i8 signext %40)
  %42 = call nonnull align 8 dereferenceable(8) %"class.std::basic_ostream"* @_ZNSo5flushEv(%"class.std::basic_ostream"* nonnull align 8 dereferenceable(8) %41)
  store i32 1, i32* @times, align 4, !tbaa !5
  call void @llvm.memset.p0i8.i64(i8* noundef nonnull align 16 dereferenceable(4000) bitcast ([1000 x i32]* @used to i8*), i8 0, i64 4000, i1 false)
  %43 = add nuw nsw i32 %9, 1
  %44 = load i32, i32* %1, align 4, !tbaa !5
  %45 = icmp slt i32 %43, %44
  br i1 %45, label %8, label %46, !llvm.loop !26

46:                                               ; preds = %39, %0
  call void @llvm.lifetime.end.p0i8(i64 4, i8* nonnull %4) #10
  call void @llvm.lifetime.end.p0i8(i64 4, i8* nonnull %3) #10
  ret i32 0
}

declare nonnull align 8 dereferenceable(16) %"class.std::basic_istream"* @_ZNSirsERi(%"class.std::basic_istream"* nonnull align 8 dereferenceable(16), i32* nonnull align 4 dereferenceable(4)) local_unnamed_addr #0

declare nonnull align 8 dereferenceable(8) %"class.std::basic_ostream"* @_ZNSolsEi(%"class.std::basic_ostream"* nonnull align 8 dereferenceable(8), i32) local_unnamed_addr #0

; Function Attrs: mustprogress nofree nounwind willreturn
declare double @sqrt(double) local_unnamed_addr #6

declare nonnull align 8 dereferenceable(8) %"class.std::basic_ostream"* @_ZNSo3putEc(%"class.std::basic_ostream"* nonnull align 8 dereferenceable(8), i8 signext) local_unnamed_addr #0

declare nonnull align 8 dereferenceable(8) %"class.std::basic_ostream"* @_ZNSo5flushEv(%"class.std::basic_ostream"* nonnull align 8 dereferenceable(8)) local_unnamed_addr #0

; Function Attrs: noreturn
declare void @_ZSt16__throw_bad_castv() local_unnamed_addr #7

declare void @_ZNKSt5ctypeIcE13_M_widen_initEv(%"class.std::ctype"* nonnull align 8 dereferenceable(570)) local_unnamed_addr #0

; Function Attrs: sspstrong uwtable
define internal void @_GLOBAL__sub_I_776.cpp() #8 section ".text.startup" {
  tail call void @_ZNSt8ios_base4InitC1Ev(%"class.std::ios_base::Init"* nonnull align 1 dereferenceable(1) @_ZStL8__ioinit)
  %1 = tail call i32 @__cxa_atexit(void (i8*)* bitcast (void (%"class.std::ios_base::Init"*)* @_ZNSt8ios_base4InitD1Ev to void (i8*)*), i8* getelementptr inbounds (%"class.std::ios_base::Init", %"class.std::ios_base::Init"* @_ZStL8__ioinit, i64 0, i32 0), i8* nonnull @__dso_handle) #10
  ret void
}

; Function Attrs: argmemonly nofree nounwind willreturn writeonly
declare void @llvm.memset.p0i8.i64(i8* nocapture writeonly, i8, i64, i1 immarg) #9


!llvm.module.flags = !{!0, !1, !2, !3}
!llvm.ident = !{!4}

!0 = !{i32 1, !"wchar_size", i32 4}
!1 = !{i32 7, !"PIC Level", i32 2}
!2 = !{i32 7, !"PIE Level", i32 2}
!3 = !{i32 7, !"uwtable", i32 1}
!4 = !{!"clang version 13.0.0"}
!5 = !{!6, !6, i64 0}
!6 = !{!"int", !7, i64 0}
!7 = !{!"omnipotent char", !8, i64 0}
!8 = !{!"Simple C++ TBAA"}
!9 = distinct !{!9, !10, !11}
!10 = !{!"llvm.loop.mustprogress"}
!11 = !{!"llvm.loop.isvectorized", i32 1}
!12 = distinct !{!12, !13}
!13 = !{!"llvm.loop.unroll.disable"}
!14 = distinct !{!14, !10, !15, !11}
!15 = !{!"llvm.loop.unroll.runtime.disable"}
!16 = distinct !{!16, !10}
!17 = !{!18, !18, i64 0}
!18 = !{!"vtable pointer", !8, i64 0}
!19 = !{!20, !21, i64 240}
!20 = !{!"_ZTSSt9basic_iosIcSt11char_traitsIcEE", !21, i64 216, !7, i64 224, !22, i64 225, !21, i64 232, !21, i64 240, !21, i64 248, !21, i64 256}
!21 = !{!"any pointer", !7, i64 0}
!22 = !{!"bool", !7, i64 0}
!23 = !{!24, !7, i64 56}
!24 = !{!"_ZTSSt5ctypeIcE", !21, i64 16, !22, i64 24, !21, i64 32, !21, i64 40, !21, i64 48, !7, i64 56, !7, i64 57, !7, i64 313, !7, i64 569}
!25 = !{!7, !7, i64 0}
!26 = distinct !{!26, !10}
